target datalayout = "e-m:e-p270:32:32-p271:32:32-p272:64:64-i64:64-i128:128-f80:128-n8:16:32:64-S128"
target triple = "x86_64-pc-linux-gnu"

%"class.WasmEdge::FileMgr" = type { i32, i64, i64, i64, ptr, %"class.std::optional", %"class.std::optional.2" }
%"class.std::optional" = type { %"struct.std::_Optional_base" }
%"struct.std::_Optional_base" = type { %"struct.std::_Optional_payload" }
%"struct.std::_Optional_payload" = type { %"struct.std::_Optional_payload.base", [7 x i8] }
%"struct.std::_Optional_payload.base" = type { %"struct.std::_Optional_payload_base.base" }
%"struct.std::_Optional_payload_base.base" = type <{ %"union.std::_Optional_payload_base<WasmEdge::MMap>::_Storage", i8 }>
%"union.std::_Optional_payload_base<WasmEdge::MMap>::_Storage" = type { %"class.WasmEdge::MMap" }
%"class.WasmEdge::MMap" = type { ptr }
%"class.std::optional.2" = type { %"struct.std::_Optional_base.3" }
%"struct.std::_Optional_base.3" = type { %"struct.std::_Optional_payload.5" }
%"struct.std::_Optional_payload.5" = type { %"struct.std::_Optional_payload.base.9", [7 x i8] }
%"struct.std::_Optional_payload.base.9" = type { %"struct.std::_Optional_payload_base.base.8" }
%"struct.std::_Optional_payload_base.base.8" = type <{ %"union.std::_Optional_payload_base<std::vector<unsigned char>>::_Storage", i8 }>
%"union.std::_Optional_payload_base<std::vector<unsigned char>>::_Storage" = type { %"class.std::vector" }
%"class.std::vector" = type { %"struct.std::_Vector_base" }
%"struct.std::_Vector_base" = type { %"struct.std::_Vector_base<unsigned char, std::allocator<unsigned char>>::_Vector_impl" }
%"struct.std::_Vector_base<unsigned char, std::allocator<unsigned char>>::_Vector_impl" = type { %"struct.std::_Vector_base<unsigned char, std::allocator<unsigned char>>::_Vector_impl_data" }
%"struct.std::_Vector_base<unsigned char, std::allocator<unsigned char>>::_Vector_impl_data" = type { ptr, ptr, ptr }

@__const._ZN8WasmEdge7FileMgr13getHeaderTypeEv.WASMMagic = private unnamed_addr constant [4 x i8] c"\00asm", align 1
@__const._ZN8WasmEdge7FileMgr13getHeaderTypeEv.ELFMagic = private unnamed_addr constant [4 x i8] c"\7FELF", align 1
@__const._ZN8WasmEdge7FileMgr13getHeaderTypeEv.MAC32agic = private unnamed_addr constant [4 x i8] c"\CE\FA\ED\FE", align 1
@__const._ZN8WasmEdge7FileMgr13getHeaderTypeEv.MAC64agic = private unnamed_addr constant [4 x i8] c"\CF\FA\ED\FE", align 1
@__const._ZN8WasmEdge7FileMgr13getHeaderTypeEv.DLLMagic = private unnamed_addr constant [2 x i8] c"MZ", align 1

; Function Attrs: mustprogress nounwind uwtable
define linkonce_odr noundef i32 @_ZSt8__memcmpIhhEiPKT_PKT0_m(ptr noundef %0, ptr noundef %1, i64 noundef %2) #1 comdat {
  %4 = alloca ptr, align 8
  %5 = alloca ptr, align 8
  %6 = alloca i64, align 8
  store ptr %0, ptr %4, align 8
  store ptr %1, ptr %5, align 8
  store i64 %2, ptr %6, align 8
  %7 = load ptr, ptr %4, align 8
  %8 = load ptr, ptr %5, align 8
  %9 = load i64, ptr %6, align 8
  %10 = mul i64 1, %9
  %11 = call i32 @memcmp(ptr noundef %7, ptr noundef %8, i64 noundef %10) #11
  ret i32 %11
}

; Function Attrs: mustprogress uwtable
define linkonce_odr hidden noundef zeroext i1 @_ZNSt7__equalILb1EE5equalIhEEbPKT_S4_S4_(ptr noundef %0, ptr noundef %1, ptr noundef %2) #0 comdat align 2 {
  %4 = alloca i1, align 1
  %5 = alloca ptr, align 8
  %6 = alloca ptr, align 8
  %7 = alloca ptr, align 8
  %8 = alloca i64, align 8
  store ptr %0, ptr %5, align 8
  store ptr %1, ptr %6, align 8
  store ptr %2, ptr %7, align 8
  %9 = load ptr, ptr %6, align 8
  %10 = load ptr, ptr %5, align 8
  %11 = ptrtoint ptr %9 to i64
  %12 = ptrtoint ptr %10 to i64
  %13 = sub i64 %11, %12
  store i64 %13, ptr %8, align 8
  %14 = load i64, ptr %8, align 8
  %15 = icmp ne i64 %14, 0
  br i1 %15, label %16, label %23

16:                                               ; preds = %3
  %17 = load ptr, ptr %5, align 8
  %18 = load ptr, ptr %7, align 8
  %19 = load i64, ptr %8, align 8
  %20 = call noundef i32 @_ZSt8__memcmpIhhEiPKT_PKT0_m(ptr noundef %17, ptr noundef %18, i64 noundef %19)
  %21 = icmp ne i32 %20, 0
  %22 = xor i1 %21, true
  store i1 %22, ptr %4, align 1
  br label %24

23:                                               ; preds = %3
  store i1 true, ptr %4, align 1
  br label %24

24:                                               ; preds = %23, %16
  %25 = load i1, ptr %4, align 1
  ret i1 %25
}

; Function Attrs: mustprogress uwtable
define linkonce_odr noundef zeroext i1 @_ZSt12__equal_aux1IPhPKhEbT_S3_T0_(ptr noundef %0, ptr noundef %1, ptr noundef %2) #0 comdat {
  %4 = alloca ptr, align 8
  %5 = alloca ptr, align 8
  %6 = alloca ptr, align 8
  %7 = alloca i8, align 1
  store ptr %0, ptr %4, align 8
  store ptr %1, ptr %5, align 8
  store ptr %2, ptr %6, align 8
  store i8 1, ptr %7, align 1
  %8 = load ptr, ptr %4, align 8
  %9 = load ptr, ptr %5, align 8
  %10 = load ptr, ptr %6, align 8
  %11 = call noundef zeroext i1 @_ZNSt7__equalILb1EE5equalIhEEbPKT_S4_S4_(ptr noundef %8, ptr noundef %9, ptr noundef %10)
  ret i1 %11
}

; Function Attrs: mustprogress nounwind uwtable
define linkonce_odr noundef ptr @_ZSt12__niter_baseIPKhET_S2_(ptr noundef %0) #1 comdat {
  %2 = alloca ptr, align 8
  store ptr %0, ptr %2, align 8
  %3 = load ptr, ptr %2, align 8
  ret ptr %3
}

; Function Attrs: mustprogress nounwind uwtable
define linkonce_odr noundef ptr @_ZSt12__niter_baseIPhET_S1_(ptr noundef %0) #1 comdat {
  %2 = alloca ptr, align 8
  store ptr %0, ptr %2, align 8
  %3 = load ptr, ptr %2, align 8
  ret ptr %3
}

; Function Attrs: mustprogress uwtable
define linkonce_odr noundef zeroext i1 @_ZSt11__equal_auxIPhPKhEbT_S3_T0_(ptr noundef %0, ptr noundef %1, ptr noundef %2) #0 comdat {
  %4 = alloca ptr, align 8
  %5 = alloca ptr, align 8
  %6 = alloca ptr, align 8
  store ptr %0, ptr %4, align 8
  store ptr %1, ptr %5, align 8
  store ptr %2, ptr %6, align 8
  %7 = load ptr, ptr %4, align 8
  %8 = call noundef ptr @_ZSt12__niter_baseIPhET_S1_(ptr noundef %7) #11
  %9 = load ptr, ptr %5, align 8
  %10 = call noundef ptr @_ZSt12__niter_baseIPhET_S1_(ptr noundef %9) #11
  %11 = load ptr, ptr %6, align 8
  %12 = call noundef ptr @_ZSt12__niter_baseIPKhET_S2_(ptr noundef %11) #11
  %13 = call noundef zeroext i1 @_ZSt12__equal_aux1IPhPKhEbT_S3_T0_(ptr noundef %8, ptr noundef %10, ptr noundef %12)
  ret i1 %13
}

; Function Attrs: mustprogress uwtable
define linkonce_odr noundef zeroext i1 @_ZSt5equalIPhPKhEbT_S3_T0_(ptr noundef %0, ptr noundef %1, ptr noundef %2) #0 comdat {
  %4 = alloca ptr, align 8
  %5 = alloca ptr, align 8
  %6 = alloca ptr, align 8
  store ptr %0, ptr %4, align 8
  store ptr %1, ptr %5, align 8
  store ptr %2, ptr %6, align 8
  %7 = load ptr, ptr %4, align 8
  %8 = load ptr, ptr %5, align 8
  %9 = load ptr, ptr %6, align 8
  %10 = call noundef zeroext i1 @_ZSt11__equal_auxIPhPKhEbT_S3_T0_(ptr noundef %7, ptr noundef %8, ptr noundef %9)
  ret i1 %10
}

; Function Attrs: mustprogress uwtable
define noundef zeroext i8 @_ZN8WasmEdge7FileMgr13getHeaderTypeEv(ptr noundef nonnull align 8 dereferenceable(88) %0) #0 align 2 {
  %2 = alloca i8, align 1
  %3 = alloca ptr, align 8
  %4 = alloca [4 x i8], align 1
  %5 = alloca [4 x i8], align 1
  %6 = alloca [4 x i8], align 1
  %7 = alloca [4 x i8], align 1
  %8 = alloca [2 x i8], align 1
  store ptr %0, ptr %3, align 8
  %9 = load ptr, ptr %3, align 8
  %10 = getelementptr inbounds %"class.WasmEdge::FileMgr", ptr %9, i32 0, i32 3
  %11 = load i64, ptr %10, align 8
  %12 = icmp uge i64 %11, 4
  br i1 %12, label %13, label %49

13:                                               ; preds = %1
  call void @llvm.memcpy.p0.p0.i64(ptr align 1 %4, ptr align 1 @__const._ZN8WasmEdge7FileMgr13getHeaderTypeEv.WASMMagic, i64 4, i1 false)
  call void @llvm.memcpy.p0.p0.i64(ptr align 1 %5, ptr align 1 @__const._ZN8WasmEdge7FileMgr13getHeaderTypeEv.ELFMagic, i64 4, i1 false)
  call void @llvm.memcpy.p0.p0.i64(ptr align 1 %6, ptr align 1 @__const._ZN8WasmEdge7FileMgr13getHeaderTypeEv.MAC32agic, i64 4, i1 false)
  call void @llvm.memcpy.p0.p0.i64(ptr align 1 %7, ptr align 1 @__const._ZN8WasmEdge7FileMgr13getHeaderTypeEv.MAC64agic, i64 4, i1 false)
  %14 = getelementptr inbounds [4 x i8], ptr %4, i64 0, i64 0
  %15 = getelementptr inbounds [4 x i8], ptr %4, i64 0, i64 0
  %16 = getelementptr inbounds i8, ptr %15, i64 4
  %17 = getelementptr inbounds %"class.WasmEdge::FileMgr", ptr %9, i32 0, i32 4
  %18 = load ptr, ptr %17, align 8
  %19 = call noundef zeroext i1 @_ZSt5equalIPhPKhEbT_S3_T0_(ptr noundef %14, ptr noundef %16, ptr noundef %18)
  br i1 %19, label %20, label %21

20:                                               ; preds = %13
  store i8 0, ptr %2, align 1
  br label %63

21:                                               ; preds = %13
  %22 = getelementptr inbounds [4 x i8], ptr %5, i64 0, i64 0
  %23 = getelementptr inbounds [4 x i8], ptr %5, i64 0, i64 0
  %24 = getelementptr inbounds i8, ptr %23, i64 4
  %25 = getelementptr inbounds %"class.WasmEdge::FileMgr", ptr %9, i32 0, i32 4
  %26 = load ptr, ptr %25, align 8
  %27 = call noundef zeroext i1 @_ZSt5equalIPhPKhEbT_S3_T0_(ptr noundef %22, ptr noundef %24, ptr noundef %26)
  br i1 %27, label %28, label %29

28:                                               ; preds = %21
  store i8 1, ptr %2, align 1
  br label %63

29:                                               ; preds = %21
  %30 = getelementptr inbounds [4 x i8], ptr %6, i64 0, i64 0
  %31 = getelementptr inbounds [4 x i8], ptr %6, i64 0, i64 0
  %32 = getelementptr inbounds i8, ptr %31, i64 4
  %33 = getelementptr inbounds %"class.WasmEdge::FileMgr", ptr %9, i32 0, i32 4
  %34 = load ptr, ptr %33, align 8
  %35 = call noundef zeroext i1 @_ZSt5equalIPhPKhEbT_S3_T0_(ptr noundef %30, ptr noundef %32, ptr noundef %34)
  br i1 %35, label %36, label %37

36:                                               ; preds = %29
  store i8 2, ptr %2, align 1
  br label %63

37:                                               ; preds = %29
  %38 = getelementptr inbounds [4 x i8], ptr %7, i64 0, i64 0
  %39 = getelementptr inbounds [4 x i8], ptr %7, i64 0, i64 0
  %40 = getelementptr inbounds i8, ptr %39, i64 4
  %41 = getelementptr inbounds %"class.WasmEdge::FileMgr", ptr %9, i32 0, i32 4
  %42 = load ptr, ptr %41, align 8
  %43 = call noundef zeroext i1 @_ZSt5equalIPhPKhEbT_S3_T0_(ptr noundef %38, ptr noundef %40, ptr noundef %42)
  br i1 %43, label %44, label %45

44:                                               ; preds = %37
  store i8 3, ptr %2, align 1
  br label %63

45:                                               ; preds = %37
  br label %46

46:                                               ; preds = %45
  br label %47

47:                                               ; preds = %46
  br label %48

48:                                               ; preds = %47
  br label %49

49:                                               ; preds = %48, %1
  %50 = getelementptr inbounds %"class.WasmEdge::FileMgr", ptr %9, i32 0, i32 3
  %51 = load i64, ptr %50, align 8
  %52 = icmp uge i64 %51, 2
  br i1 %52, label %53, label %62

53:                                               ; preds = %49
  call void @llvm.memcpy.p0.p0.i64(ptr align 1 %8, ptr align 1 @__const._ZN8WasmEdge7FileMgr13getHeaderTypeEv.DLLMagic, i64 2, i1 false)
  %54 = getelementptr inbounds [2 x i8], ptr %8, i64 0, i64 0
  %55 = getelementptr inbounds [2 x i8], ptr %8, i64 0, i64 0
  %56 = getelementptr inbounds i8, ptr %55, i64 2
  %57 = getelementptr inbounds %"class.WasmEdge::FileMgr", ptr %9, i32 0, i32 4
  %58 = load ptr, ptr %57, align 8
  %59 = call noundef zeroext i1 @_ZSt5equalIPhPKhEbT_S3_T0_(ptr noundef %54, ptr noundef %56, ptr noundef %58)
  br i1 %59, label %60, label %61

60:                                               ; preds = %53
  store i8 4, ptr %2, align 1
  br label %63

61:                                               ; preds = %53
  br label %62

62:                                               ; preds = %61, %49
  store i8 5, ptr %2, align 1
  br label %63

63:                                               ; preds = %62, %60, %44, %36, %28, %20
  %64 = load i8, ptr %2, align 1
  ret i8 %64
}