; Function Attrs: mustprogress nofree nounwind willreturn memory(read, inaccessiblemem: none) uwtable
define noundef zeroext range(i8 0, 6) i8 @_ZN8WasmEdge7FileMgr13getHeaderTypeEv(ptr noundef nonnull readonly align 8 captures(none) dereferenceable(88) %0) local_unnamed_addr #9 align 2 {
  %2 = alloca [4 x i8], align 4
  %3 = alloca [4 x i8], align 4
  %4 = alloca [4 x i8], align 4
  %5 = alloca [4 x i8], align 4
  %6 = alloca [2 x i8], align 2
  %7 = getelementptr inbounds nuw i8, ptr %0, i64 24
  %8 = load i64, ptr %7, align 8
  %9 = icmp ugt i64 %8, 3
  br i1 %9, label %10, label %16

10:                                               ; preds = %1
  store i32 1836278016, ptr %2, align 4
  store i32 1179403647, ptr %3, align 4
  store i32 -17958194, ptr %4, align 4
  store i32 -17958193, ptr %5, align 4
  %11 = getelementptr inbounds nuw i8, ptr %0, i64 32
  %12 = load ptr, ptr %11, align 8
  %bcmp.i.i.i.i = call i32 @bcmp(ptr noundef nonnull dereferenceable(4) %2, ptr noundef nonnull dereferenceable(4) %12, i64 4)
  %.not7.i.i.i.i = icmp eq i32 %bcmp.i.i.i.i, 0
  br i1 %.not7.i.i.i.i, label %20, label %13

13:                                               ; preds = %10
  %bcmp.i.i.i.i1 = call i32 @bcmp(ptr noundef nonnull dereferenceable(4) %3, ptr noundef nonnull dereferenceable(4) %12, i64 4)
  %.not7.i.i.i.i2 = icmp eq i32 %bcmp.i.i.i.i1, 0
  br i1 %.not7.i.i.i.i2, label %20, label %14

14:                                               ; preds = %13
  %bcmp.i.i.i.i3 = call i32 @bcmp(ptr noundef nonnull dereferenceable(4) %4, ptr noundef nonnull dereferenceable(4) %12, i64 4)
  %.not7.i.i.i.i4 = icmp eq i32 %bcmp.i.i.i.i3, 0
  br i1 %.not7.i.i.i.i4, label %20, label %15

15:                                               ; preds = %14
  %bcmp.i.i.i.i5 = call i32 @bcmp(ptr noundef nonnull dereferenceable(4) %5, ptr noundef nonnull dereferenceable(4) %12, i64 4)
  %.not7.i.i.i.i6 = icmp eq i32 %bcmp.i.i.i.i5, 0
  br i1 %.not7.i.i.i.i6, label %20, label %.thread

16:                                               ; preds = %1
  %17 = icmp samesign ugt i64 %8, 1
  br i1 %17, label %..thread_crit_edge, label %19

..thread_crit_edge:                               ; preds = %16
  %.phi.trans.insert = getelementptr inbounds nuw i8, ptr %0, i64 32
  %.pre = load ptr, ptr %.phi.trans.insert, align 8
  br label %.thread

.thread:                                          ; preds = %..thread_crit_edge, %15
  %18 = phi ptr [ %.pre, %..thread_crit_edge ], [ %12, %15 ]
  store i16 23117, ptr %6, align 2
  %bcmp.i.i.i.i7 = call i32 @bcmp(ptr noundef nonnull dereferenceable(2) %6, ptr noundef nonnull dereferenceable(2) %18, i64 2)
  %.not7.i.i.i.i8 = icmp eq i32 %bcmp.i.i.i.i7, 0
  br i1 %.not7.i.i.i.i8, label %20, label %19

19:                                               ; preds = %.thread, %16
  br label %20

20:                                               ; preds = %.thread, %15, %14, %13, %10, %19
  %.0 = phi i8 [ 5, %19 ], [ 0, %10 ], [ 1, %13 ], [ 2, %14 ], [ 3, %15 ], [ 4, %.thread ]
  ret i8 %.0
}